; Function Attrs: nounwind uwtable
define dso_local void @strvec_pushv(ptr noundef captures(none) %0, ptr noundef readonly captures(none) %1) local_unnamed_addr #3 {
  %3 = load ptr, ptr %1, align 8, !tbaa !13
  %.not5 = icmp eq ptr %3, null
  br i1 %.not5, label %._crit_edge, label %.lr.ph

.lr.ph:                                           ; preds = %2
  %4 = getelementptr inbounds nuw i8, ptr %0, i64 8
  %5 = getelementptr inbounds nuw i8, ptr %0, i64 16
  br label %6

6:                                                ; preds = %.lr.ph, %strvec_push.exit
  %7 = phi ptr [ %3, %.lr.ph ], [ %32, %strvec_push.exit ]
  %.06 = phi ptr [ %1, %.lr.ph ], [ %31, %strvec_push.exit ]
  %8 = tail call ptr @xstrdup(ptr noundef nonnull %7) #11
  %9 = load ptr, ptr %0, align 8, !tbaa !4
  %10 = icmp eq ptr %9, @empty_strvec
  br i1 %10, label %11, label %12

11:                                               ; preds = %6
  store ptr null, ptr %0, align 8, !tbaa !4
  br label %12

12:                                               ; preds = %11, %6
  %13 = phi ptr [ %9, %6 ], [ null, %11 ]
  %14 = load i64, ptr %4, align 8, !tbaa !11
  %15 = add i64 %14, 2
  %16 = load i64, ptr %5, align 8, !tbaa !12
  %17 = icmp ugt i64 %15, %16
  br i1 %17, label %18, label %strvec_push.exit

18:                                               ; preds = %12
  %19 = mul i64 %16, 3
  %20 = add i64 %19, 48
  %21 = lshr i64 %20, 1
  %..i.i = tail call i64 @llvm.umax.i64(i64 %21, i64 %15)
  store i64 %..i.i, ptr %5, align 8, !tbaa !12
  %22 = icmp ugt i64 %..i.i, 2305843009213693951
  br i1 %22, label %23, label %st_mult.exit.i.i

23:                                               ; preds = %18
  tail call void (ptr, ...) @die(ptr noundef nonnull @.str.3, i64 noundef 8, i64 noundef %..i.i) #10
  unreachable

st_mult.exit.i.i:                                 ; preds = %18
  %24 = shl nuw i64 %..i.i, 3
  %25 = tail call ptr @xrealloc(ptr noundef %13, i64 noundef %24) #11
  store ptr %25, ptr %0, align 8, !tbaa !4
  %.pre.i.i = load i64, ptr %4, align 8, !tbaa !11
  br label %strvec_push.exit

strvec_push.exit:                                 ; preds = %12, %st_mult.exit.i.i
  %26 = phi i64 [ %14, %12 ], [ %.pre.i.i, %st_mult.exit.i.i ]
  %27 = phi ptr [ %13, %12 ], [ %25, %st_mult.exit.i.i ]
  %28 = add i64 %26, 1
  store i64 %28, ptr %4, align 8, !tbaa !11
  %29 = getelementptr inbounds nuw ptr, ptr %27, i64 %26
  store ptr %8, ptr %29, align 8, !tbaa !13
  %30 = getelementptr ptr, ptr %27, i64 %28
  store ptr null, ptr %30, align 8, !tbaa !13
  %31 = getelementptr inbounds nuw i8, ptr %.06, i64 8
  %32 = load ptr, ptr %31, align 8, !tbaa !13
  %.not = icmp eq ptr %32, null
  br i1 %.not, label %._crit_edge, label %6, !llvm.loop !17

._crit_edge:                                      ; preds = %strvec_push.exit, %2
  ret void
}